; Function Attrs: mustprogress ssp uwtable
define void @_ZNK6open3d7utility7CPUInfo5PrintEv(ptr noundef nonnull readonly align 8 captures(none) dereferenceable(8) %0) local_unnamed_addr #0 align 2 {
  %2 = alloca i32, align 4
  %3 = alloca i32, align 4
  call void @llvm.lifetime.start.p0(i64 4, ptr nonnull %2) #31
  %4 = load ptr, ptr %0, align 8, !tbaa !4
  %5 = load i32, ptr %4, align 4, !tbaa !66
  store i32 %5, ptr %2, align 4, !tbaa !62
  call void @llvm.lifetime.start.p0(i64 4, ptr nonnull %3) #31
  %6 = getelementptr inbounds nuw i8, ptr %4, i64 4
  %7 = load i32, ptr %6, align 4, !tbaa !68
  store i32 %7, ptr %3, align 4, !tbaa !62
  call void @_ZN6open3d7utility6Logger8LogInfo_IJiiEEEvPKciS4_S4_DpOT_(ptr noundef nonnull @.str.7, i32 noundef 132, ptr noundef nonnull @__PRETTY_FUNCTION__._ZNK6open3d7utility7CPUInfo5PrintEv, ptr noundef nonnull @.str.8, ptr noundef nonnull align 4 dereferenceable(4) %2, ptr noundef nonnull align 4 dereferenceable(4) %3)
  call void @llvm.lifetime.end.p0(i64 4, ptr nonnull %3) #31
  call void @llvm.lifetime.end.p0(i64 4, ptr nonnull %2) #31
  ret void
}